target datalayout = "e-m:e-p270:32:32-p271:32:32-p272:64:64-i64:64-i128:128-f80:128-n8:16:32:64-S128"
target triple = "x86_64-pc-linux-gnu"

%struct.stbte_tilemap = type { [200 x [200 x [8 x i16]]], [200 x [200 x [1 x float]]], i32, i32, i32, i32, i32, i32, i32, i32, i32, i32, i32, i32, [100 x ptr], i32, i32, ptr, i32, i32, i32, i8, i8, i8, i8, i32, i32, i32, [8 x %struct.stbte__layer], i32, i32, i32, i32, i32, i32, i32, i32, i16, [4096 x i8], ptr }
%struct.stbte__layer = type { ptr, i32, i32 }

; Function Attrs: nounwind uwtable
define ptr @stbte_get_tile(ptr noundef %0, i32 noundef %1, i32 noundef %2) #0 {
  %4 = alloca ptr, align 8
  %5 = alloca ptr, align 8
  %6 = alloca i32, align 4
  %7 = alloca i32, align 4
  store ptr %0, ptr %5, align 8, !tbaa !25
  store i32 %1, ptr %6, align 4, !tbaa !13
  store i32 %2, ptr %7, align 4, !tbaa !13
  %8 = load i32, ptr %6, align 4, !tbaa !13
  %9 = icmp slt i32 %8, 0
  br i1 %9, label %19, label %10

10:                                               ; preds = %3
  %11 = load i32, ptr %6, align 4, !tbaa !13
  %12 = icmp sge i32 %11, 200
  br i1 %12, label %19, label %13

13:                                               ; preds = %10
  %14 = load i32, ptr %7, align 4, !tbaa !13
  %15 = icmp slt i32 %14, 0
  br i1 %15, label %19, label %16

16:                                               ; preds = %13
  %17 = load i32, ptr %7, align 4, !tbaa !13
  %18 = icmp sge i32 %17, 200
  br i1 %18, label %19, label %20

19:                                               ; preds = %16, %13, %10, %3
  store ptr null, ptr %4, align 8
  br label %30

20:                                               ; preds = %16
  %21 = load ptr, ptr %5, align 8, !tbaa !25
  %22 = getelementptr inbounds nuw %struct.stbte_tilemap, ptr %21, i32 0, i32 0
  %23 = load i32, ptr %7, align 4, !tbaa !13
  %24 = sext i32 %23 to i64
  %25 = getelementptr inbounds [200 x [200 x [8 x i16]]], ptr %22, i64 0, i64 %24
  %26 = load i32, ptr %6, align 4, !tbaa !13
  %27 = sext i32 %26 to i64
  %28 = getelementptr inbounds [200 x [8 x i16]], ptr %25, i64 0, i64 %27
  %29 = getelementptr inbounds [8 x i16], ptr %28, i64 0, i64 0
  store ptr %29, ptr %4, align 8
  br label %30

30:                                               ; preds = %20, %19
  %31 = load ptr, ptr %4, align 8
  ret ptr %31
}