; Function Attrs: mustprogress nofree norecurse nosync nounwind willreturn memory(none) uwtable
define ptr @stbte_get_tile(ptr noundef readnone captures(ret: address, provenance) %0, i32 noundef %1, i32 noundef %2) local_unnamed_addr #11 {
  %or.cond = icmp ugt i32 %1, 199
  %4 = icmp ugt i32 %2, 199
  %or.cond5 = or i1 %or.cond, %4
  %5 = zext nneg i32 %2 to i64
  %6 = zext nneg i32 %1 to i64
  %7 = getelementptr inbounds nuw [200 x [200 x [8 x i16]]], ptr %0, i64 0, i64 %5, i64 %6
  %.0 = select i1 %or.cond5, ptr null, ptr %7
  ret ptr %.0
}